target datalayout = "e-m:e-p270:32:32-p271:32:32-p272:64:64-i64:64-i128:128-f80:128-n8:16:32:64-S128"
target triple = "x86_64-pc-linux-gnu"

; Function Attrs: nounwind uwtable
define i32 @stbhw__change_color(i32 noundef %0, i32 noundef %1, ptr noundef %2) #0 {
  %4 = alloca i32, align 4
  %5 = alloca i32, align 4
  %6 = alloca i32, align 4
  %7 = alloca ptr, align 8
  %8 = alloca i32, align 4
  %9 = alloca i32, align 4
  %10 = alloca i32, align 4
  %11 = alloca i32, align 4
  store i32 %0, ptr %5, align 4, !tbaa !10
  store i32 %1, ptr %6, align 4, !tbaa !10
  store ptr %2, ptr %7, align 8, !tbaa !35
  %12 = load ptr, ptr %7, align 8, !tbaa !35
  %13 = icmp ne ptr %12, null
  br i1 %13, label %14, label %67

14:                                               ; preds = %3
  call void @llvm.lifetime.start.p0(i64 4, ptr %8) #6
  call void @llvm.lifetime.start.p0(i64 4, ptr %9) #6
  call void @llvm.lifetime.start.p0(i64 4, ptr %10) #6
  store i32 0, ptr %9, align 4, !tbaa !10
  store i32 0, ptr %8, align 4, !tbaa !10
  br label %15

15:                                               ; preds = %32, %14
  %16 = load i32, ptr %8, align 4, !tbaa !10
  %17 = load i32, ptr %6, align 4, !tbaa !10
  %18 = icmp slt i32 %16, %17
  br i1 %18, label %19, label %35

19:                                               ; preds = %15
  %20 = load i32, ptr %8, align 4, !tbaa !10
  %21 = load i32, ptr %5, align 4, !tbaa !10
  %22 = icmp ne i32 %20, %21
  br i1 %22, label %23, label %31

23:                                               ; preds = %19
  %24 = load ptr, ptr %7, align 8, !tbaa !35
  %25 = load i32, ptr %8, align 4, !tbaa !10
  %26 = sext i32 %25 to i64
  %27 = getelementptr inbounds i32, ptr %24, i64 %26
  %28 = load i32, ptr %27, align 4, !tbaa !10
  %29 = load i32, ptr %9, align 4, !tbaa !10
  %30 = add nsw i32 %29, %28
  store i32 %30, ptr %9, align 4, !tbaa !10
  br label %31

31:                                               ; preds = %23, %19
  br label %32

32:                                               ; preds = %31
  %33 = load i32, ptr %8, align 4, !tbaa !10
  %34 = add nsw i32 %33, 1
  store i32 %34, ptr %8, align 4, !tbaa !10
  br label %15, !llvm.loop !76

35:                                               ; preds = %15
  %36 = call i32 @rand() #6
  %37 = ashr i32 %36, 4
  %38 = load i32, ptr %9, align 4, !tbaa !10
  %39 = srem i32 %37, %38
  store i32 %39, ptr %10, align 4, !tbaa !10
  store i32 0, ptr %9, align 4, !tbaa !10
  store i32 0, ptr %8, align 4, !tbaa !10
  br label %40

40:                                               ; preds = %62, %35
  %41 = load i32, ptr %8, align 4, !tbaa !10
  %42 = load i32, ptr %6, align 4, !tbaa !10
  %43 = icmp slt i32 %41, %42
  br i1 %43, label %44, label %65

44:                                               ; preds = %40
  %45 = load i32, ptr %8, align 4, !tbaa !10
  %46 = load i32, ptr %5, align 4, !tbaa !10
  %47 = icmp ne i32 %45, %46
  br i1 %47, label %48, label %61

48:                                               ; preds = %44
  %49 = load ptr, ptr %7, align 8, !tbaa !35
  %50 = load i32, ptr %8, align 4, !tbaa !10
  %51 = sext i32 %50 to i64
  %52 = getelementptr inbounds i32, ptr %49, i64 %51
  %53 = load i32, ptr %52, align 4, !tbaa !10
  %54 = load i32, ptr %9, align 4, !tbaa !10
  %55 = add nsw i32 %54, %53
  store i32 %55, ptr %9, align 4, !tbaa !10
  %56 = load i32, ptr %10, align 4, !tbaa !10
  %57 = load i32, ptr %9, align 4, !tbaa !10
  %58 = icmp slt i32 %56, %57
  br i1 %58, label %59, label %60

59:                                               ; preds = %48
  br label %65

60:                                               ; preds = %48
  br label %61

61:                                               ; preds = %60, %44
  br label %62

62:                                               ; preds = %61
  %63 = load i32, ptr %8, align 4, !tbaa !10
  %64 = add nsw i32 %63, 1
  store i32 %64, ptr %8, align 4, !tbaa !10
  br label %40, !llvm.loop !77

65:                                               ; preds = %59, %40
  %66 = load i32, ptr %8, align 4, !tbaa !10
  store i32 %66, ptr %4, align 4
  call void @llvm.lifetime.end.p0(i64 4, ptr %10) #6
  call void @llvm.lifetime.end.p0(i64 4, ptr %9) #6
  call void @llvm.lifetime.end.p0(i64 4, ptr %8) #6
  br label %79

67:                                               ; preds = %3
  call void @llvm.lifetime.start.p0(i64 4, ptr %11) #6
  %68 = call i32 @rand() #6
  %69 = ashr i32 %68, 4
  %70 = load i32, ptr %6, align 4, !tbaa !10
  %71 = sub nsw i32 %70, 1
  %72 = srem i32 %69, %71
  %73 = add nsw i32 1, %72
  store i32 %73, ptr %11, align 4, !tbaa !10
  %74 = load i32, ptr %5, align 4, !tbaa !10
  %75 = load i32, ptr %11, align 4, !tbaa !10
  %76 = add nsw i32 %74, %75
  %77 = load i32, ptr %6, align 4, !tbaa !10
  %78 = srem i32 %76, %77
  store i32 %78, ptr %4, align 4
  call void @llvm.lifetime.end.p0(i64 4, ptr %11) #6
  br label %79

79:                                               ; preds = %67, %65
  %80 = load i32, ptr %4, align 4
  ret i32 %80
}