; Function Attrs: nounwind uwtable
define i32 @stbhw__change_color(i32 noundef %0, i32 noundef %1, ptr noundef readonly captures(address_is_null) %2) local_unnamed_addr #2 {
  %.not = icmp eq ptr %2, null
  br i1 %.not, label %22, label %.preheader

.preheader:                                       ; preds = %3
  %4 = icmp sgt i32 %1, 0
  br i1 %4, label %.lr.ph.preheader, label %._crit_edge.thread

._crit_edge.thread:                               ; preds = %.preheader
  %5 = tail call i32 @rand() #15
  br label %.loopexit

.lr.ph.preheader:                                 ; preds = %.preheader
  %6 = zext i32 %0 to i64
  %wide.trip.count = zext nneg i32 %1 to i64
  br label %.lr.ph

.lr.ph:                                           ; preds = %.lr.ph.preheader, %11
  %indvars.iv = phi i64 [ 0, %.lr.ph.preheader ], [ %indvars.iv.next, %11 ]
  %.02633 = phi i32 [ 0, %.lr.ph.preheader ], [ %.127, %11 ]
  %.not32 = icmp eq i64 %indvars.iv, %6
  br i1 %.not32, label %11, label %7

7:                                                ; preds = %.lr.ph
  %8 = getelementptr inbounds nuw i32, ptr %2, i64 %indvars.iv
  %9 = load i32, ptr %8, align 4, !tbaa !32
  %10 = add nsw i32 %9, %.02633
  br label %11

11:                                               ; preds = %.lr.ph, %7
  %.127 = phi i32 [ %10, %7 ], [ %.02633, %.lr.ph ]
  %indvars.iv.next = add nuw nsw i64 %indvars.iv, 1
  %exitcond.not = icmp eq i64 %indvars.iv.next, %wide.trip.count
  br i1 %exitcond.not, label %._crit_edge, label %.lr.ph, !llvm.loop !73

._crit_edge:                                      ; preds = %11
  %12 = tail call i32 @rand() #15
  %13 = ashr i32 %12, 4
  %14 = srem i32 %13, %.127
  %15 = zext i32 %0 to i64
  %wide.trip.count46 = zext nneg i32 %1 to i64
  br label %.lr.ph38

.lr.ph38:                                         ; preds = %._crit_edge, %21
  %indvars.iv43 = phi i64 [ 0, %._crit_edge ], [ %indvars.iv.next44, %21 ]
  %.235 = phi i32 [ 0, %._crit_edge ], [ %.3, %21 ]
  %.not31 = icmp eq i64 %indvars.iv43, %15
  br i1 %.not31, label %21, label %16

16:                                               ; preds = %.lr.ph38
  %17 = getelementptr inbounds nuw i32, ptr %2, i64 %indvars.iv43
  %18 = load i32, ptr %17, align 4, !tbaa !32
  %19 = add nsw i32 %18, %.235
  %20 = icmp slt i32 %14, %19
  br i1 %20, label %.loopexit.loopexit.split.loop.exit49, label %21

21:                                               ; preds = %.lr.ph38, %16
  %.3 = phi i32 [ %19, %16 ], [ %.235, %.lr.ph38 ]
  %indvars.iv.next44 = add nuw nsw i64 %indvars.iv43, 1
  %exitcond47.not = icmp eq i64 %indvars.iv.next44, %wide.trip.count46
  br i1 %exitcond47.not, label %.loopexit, label %.lr.ph38, !llvm.loop !74

22:                                               ; preds = %3
  %23 = tail call i32 @rand() #15
  %24 = ashr i32 %23, 4
  %25 = add nsw i32 %1, -1
  %26 = srem i32 %24, %25
  %27 = add i32 %0, 1
  %28 = add i32 %27, %26
  %29 = srem i32 %28, %1
  br label %.loopexit

.loopexit.loopexit.split.loop.exit49:             ; preds = %16
  %30 = trunc nuw nsw i64 %indvars.iv43 to i32
  br label %.loopexit

.loopexit:                                        ; preds = %21, %.loopexit.loopexit.split.loop.exit49, %._crit_edge.thread, %22
  %.0 = phi i32 [ %29, %22 ], [ 0, %._crit_edge.thread ], [ %30, %.loopexit.loopexit.split.loop.exit49 ], [ %1, %21 ]
  ret i32 %.0
}